target datalayout = "e-m:e-p270:32:32-p271:32:32-p272:64:64-i64:64-i128:128-f80:128-n8:16:32:64-S128"
target triple = "x86_64-pc-linux-gnu"

@s_VarMasks = internal global [5 x [2 x i32]] [[2 x i32] [i32 858993459, i32 -1431655766], [2 x i32] [i32 1431655765, i32 -858993460], [2 x i32] [i32 252645135, i32 -252645136], [2 x i32] [i32 16711935, i32 -16711936], [2 x i32] [i32 65535, i32 -65536]], align 16

; Function Attrs: inlinehint nounwind uwtable
define internal i32 @Extra_TruthWordNum(i32 noundef %0) #2 {
  %2 = alloca i32, align 4
  store i32 %0, ptr %2, align 4, !tbaa !3
  %3 = load i32, ptr %2, align 4, !tbaa !3
  %4 = icmp sle i32 %3, 5
  br i1 %4, label %5, label %6

5:                                                ; preds = %1
  br label %10

6:                                                ; preds = %1
  %7 = load i32, ptr %2, align 4, !tbaa !3
  %8 = sub nsw i32 %7, 5
  %9 = shl i32 1, %8
  br label %10

10:                                               ; preds = %6, %5
  %11 = phi i32 [ 1, %5 ], [ %9, %6 ]
  ret i32 %11
}

; Function Attrs: nounwind uwtable
define ptr @Extra_TruthElementary(i32 noundef %0) #0 {
  %2 = alloca i32, align 4
  %3 = alloca ptr, align 8
  %4 = alloca i32, align 4
  %5 = alloca i32, align 4
  %6 = alloca i32, align 4
  store i32 %0, ptr %2, align 4, !tbaa !3
  call void @llvm.lifetime.start.p0(i64 8, ptr %3) #5
  call void @llvm.lifetime.start.p0(i64 4, ptr %4) #5
  call void @llvm.lifetime.start.p0(i64 4, ptr %5) #5
  call void @llvm.lifetime.start.p0(i64 4, ptr %6) #5
  %7 = load i32, ptr %2, align 4, !tbaa !3
  %8 = call i32 @Extra_TruthWordNum(i32 noundef %7)
  store i32 %8, ptr %6, align 4, !tbaa !3
  %9 = load i32, ptr %2, align 4, !tbaa !3
  %10 = load i32, ptr %6, align 4, !tbaa !3
  %11 = call ptr @Extra_ArrayAlloc(i32 noundef %9, i32 noundef %10, i32 noundef 4)
  store ptr %11, ptr %3, align 8, !tbaa !7
  store i32 0, ptr %4, align 4, !tbaa !3
  br label %12

12:                                               ; preds = %78, %1
  %13 = load i32, ptr %4, align 4, !tbaa !3
  %14 = load i32, ptr %2, align 4, !tbaa !3
  %15 = icmp slt i32 %13, %14
  br i1 %15, label %16, label %81

16:                                               ; preds = %12
  %17 = load i32, ptr %4, align 4, !tbaa !3
  %18 = icmp slt i32 %17, 5
  br i1 %18, label %19, label %42

19:                                               ; preds = %16
  store i32 0, ptr %5, align 4, !tbaa !3
  br label %20

20:                                               ; preds = %38, %19
  %21 = load i32, ptr %5, align 4, !tbaa !3
  %22 = load i32, ptr %6, align 4, !tbaa !3
  %23 = icmp slt i32 %21, %22
  br i1 %23, label %24, label %41

24:                                               ; preds = %20
  %25 = load i32, ptr %4, align 4, !tbaa !3
  %26 = sext i32 %25 to i64
  %27 = getelementptr inbounds [5 x [2 x i32]], ptr @s_VarMasks, i64 0, i64 %26
  %28 = getelementptr inbounds [2 x i32], ptr %27, i64 0, i64 1
  %29 = load i32, ptr %28, align 4, !tbaa !3
  %30 = load ptr, ptr %3, align 8, !tbaa !7
  %31 = load i32, ptr %4, align 4, !tbaa !3
  %32 = sext i32 %31 to i64
  %33 = getelementptr inbounds ptr, ptr %30, i64 %32
  %34 = load ptr, ptr %33, align 8, !tbaa !10
  %35 = load i32, ptr %5, align 4, !tbaa !3
  %36 = sext i32 %35 to i64
  %37 = getelementptr inbounds i32, ptr %34, i64 %36
  store i32 %29, ptr %37, align 4, !tbaa !3
  br label %38

38:                                               ; preds = %24
  %39 = load i32, ptr %5, align 4, !tbaa !3
  %40 = add nsw i32 %39, 1
  store i32 %40, ptr %5, align 4, !tbaa !3
  br label %20, !llvm.loop !12

41:                                               ; preds = %20
  br label %77

42:                                               ; preds = %16
  store i32 0, ptr %5, align 4, !tbaa !3
  br label %43

43:                                               ; preds = %73, %42
  %44 = load i32, ptr %5, align 4, !tbaa !3
  %45 = load i32, ptr %6, align 4, !tbaa !3
  %46 = icmp slt i32 %44, %45
  br i1 %46, label %47, label %76

47:                                               ; preds = %43
  %48 = load i32, ptr %5, align 4, !tbaa !3
  %49 = load i32, ptr %4, align 4, !tbaa !3
  %50 = sub nsw i32 %49, 5
  %51 = shl i32 1, %50
  %52 = and i32 %48, %51
  %53 = icmp ne i32 %52, 0
  br i1 %53, label %54, label %63

54:                                               ; preds = %47
  %55 = load ptr, ptr %3, align 8, !tbaa !7
  %56 = load i32, ptr %4, align 4, !tbaa !3
  %57 = sext i32 %56 to i64
  %58 = getelementptr inbounds ptr, ptr %55, i64 %57
  %59 = load ptr, ptr %58, align 8, !tbaa !10
  %60 = load i32, ptr %5, align 4, !tbaa !3
  %61 = sext i32 %60 to i64
  %62 = getelementptr inbounds i32, ptr %59, i64 %61
  store i32 -1, ptr %62, align 4, !tbaa !3
  br label %72

63:                                               ; preds = %47
  %64 = load ptr, ptr %3, align 8, !tbaa !7
  %65 = load i32, ptr %4, align 4, !tbaa !3
  %66 = sext i32 %65 to i64
  %67 = getelementptr inbounds ptr, ptr %64, i64 %66
  %68 = load ptr, ptr %67, align 8, !tbaa !10
  %69 = load i32, ptr %5, align 4, !tbaa !3
  %70 = sext i32 %69 to i64
  %71 = getelementptr inbounds i32, ptr %68, i64 %70
  store i32 0, ptr %71, align 4, !tbaa !3
  br label %72

72:                                               ; preds = %63, %54
  br label %73

73:                                               ; preds = %72
  %74 = load i32, ptr %5, align 4, !tbaa !3
  %75 = add nsw i32 %74, 1
  store i32 %75, ptr %5, align 4, !tbaa !3
  br label %43, !llvm.loop !14

76:                                               ; preds = %43
  br label %77

77:                                               ; preds = %76, %41
  br label %78

78:                                               ; preds = %77
  %79 = load i32, ptr %4, align 4, !tbaa !3
  %80 = add nsw i32 %79, 1
  store i32 %80, ptr %4, align 4, !tbaa !3
  br label %12, !llvm.loop !15

81:                                               ; preds = %12
  %82 = load ptr, ptr %3, align 8, !tbaa !7
  call void @llvm.lifetime.end.p0(i64 4, ptr %6) #5
  call void @llvm.lifetime.end.p0(i64 4, ptr %5) #5
  call void @llvm.lifetime.end.p0(i64 4, ptr %4) #5
  call void @llvm.lifetime.end.p0(i64 8, ptr %3) #5
  ret ptr %82
}