; Function Attrs: nounwind uwtable
define ptr @Extra_TruthElementary(i32 noundef %0) local_unnamed_addr #0 {
  %2 = icmp slt i32 %0, 6
  %3 = add nsw i32 %0, -5
  %4 = shl nuw i32 1, %3
  %5 = select i1 %2, i32 1, i32 %4
  %6 = tail call ptr @Extra_ArrayAlloc(i32 noundef %0, i32 noundef %5, i32 noundef 4) #8
  %7 = icmp sgt i32 %0, 0
  %8 = icmp sgt i32 %5, 0
  %or.cond = and i1 %7, %8
  br i1 %or.cond, label %.lr.ph33.split.us.split.us.preheader, label %._crit_edge

.lr.ph33.split.us.split.us.preheader:             ; preds = %1
  %wide.trip.count52 = zext nneg i32 %0 to i64
  %wide.trip.count = zext nneg i32 %5 to i64
  %wide.trip.count47 = zext nneg i32 %5 to i64
  br label %.lr.ph33.split.us.split.us

.lr.ph33.split.us.split.us:                       ; preds = %.lr.ph33.split.us.split.us.preheader, %..loopexit27_crit_edge.us.us
  %indvars.iv49 = phi i64 [ 0, %.lr.ph33.split.us.split.us.preheader ], [ %indvars.iv.next50, %..loopexit27_crit_edge.us.us ]
  %9 = icmp samesign ult i64 %indvars.iv49, 5
  br i1 %9, label %.preheader.us.us, label %.preheader26.us.us

10:                                               ; preds = %.preheader26.us.us, %10
  %indvars.iv = phi i64 [ 0, %.preheader26.us.us ], [ %indvars.iv.next, %10 ]
  %11 = trunc nuw nsw i64 %indvars.iv to i32
  %12 = and i32 %22, %11
  %.not.us.us = icmp ne i32 %12, 0
  %13 = getelementptr inbounds nuw i32, ptr %24, i64 %indvars.iv
  %. = sext i1 %.not.us.us to i32
  store i32 %., ptr %13, align 4, !tbaa !3
  %indvars.iv.next = add nuw nsw i64 %indvars.iv, 1
  %exitcond.not = icmp eq i64 %indvars.iv.next, %wide.trip.count
  br i1 %exitcond.not, label %..loopexit27_crit_edge.us.us, label %10, !llvm.loop !7

..loopexit27_crit_edge.us.us:                     ; preds = %10, %14
  %indvars.iv.next50 = add nuw nsw i64 %indvars.iv49, 1
  %exitcond53.not = icmp eq i64 %indvars.iv.next50, %wide.trip.count52
  br i1 %exitcond53.not, label %._crit_edge, label %.lr.ph33.split.us.split.us, !llvm.loop !9

14:                                               ; preds = %.preheader.us.us, %14
  %indvars.iv44 = phi i64 [ 0, %.preheader.us.us ], [ %indvars.iv.next45, %14 ]
  %15 = getelementptr inbounds nuw i32, ptr %19, i64 %indvars.iv44
  store i32 %17, ptr %15, align 4, !tbaa !3
  %indvars.iv.next45 = add nuw nsw i64 %indvars.iv44, 1
  %exitcond48.not = icmp eq i64 %indvars.iv.next45, %wide.trip.count47
  br i1 %exitcond48.not, label %..loopexit27_crit_edge.us.us, label %14, !llvm.loop !10

.preheader.us.us:                                 ; preds = %.lr.ph33.split.us.split.us
  %16 = getelementptr inbounds nuw [5 x [2 x i32]], ptr @s_VarMasks, i64 0, i64 %indvars.iv49, i64 1
  %17 = load i32, ptr %16, align 4, !tbaa !3
  %18 = getelementptr inbounds nuw ptr, ptr %6, i64 %indvars.iv49
  %19 = load ptr, ptr %18, align 8, !tbaa !11
  br label %14

.preheader26.us.us:                               ; preds = %.lr.ph33.split.us.split.us
  %20 = trunc i64 %indvars.iv49 to i32
  %21 = add i32 %20, -5
  %22 = shl nuw i32 1, %21
  %23 = getelementptr inbounds nuw ptr, ptr %6, i64 %indvars.iv49
  %24 = load ptr, ptr %23, align 8, !tbaa !11
  br label %10

._crit_edge:                                      ; preds = %..loopexit27_crit_edge.us.us, %1
  ret ptr %6
}